
morph:     file format elf64-x86-64


Disassembly of section .init:

0000000000000720 <.init>:
 720:	48 83 ec 08          	sub    $0x8,%rsp
 724:	48 8b 05 8d 18 20 00 	mov    0x20188d(%rip),%rax        # 201fb8 <rand@plt+0x201820>
 72b:	48 85 c0             	test   %rax,%rax
 72e:	74 02                	je     732 <puts@plt-0x1e>
 730:	ff d0                	callq  *%rax
 732:	48 83 c4 08          	add    $0x8,%rsp
 736:	c3                   	retq   

Disassembly of section .plt:

0000000000000740 <.plt>:
 740:	ff 35 32 18 20 00    	pushq  0x201832(%rip)        # 201f78 <rand@plt+0x2017e0>
 746:	ff 25 34 18 20 00    	jmpq   *0x201834(%rip)        # 201f80 <rand@plt+0x2017e8>
 74c:	0f 1f 40 00          	nopl   0x0(%rax)

Disassembly of section .plt.got:

0000000000000750 <puts@plt>:
 750:	ff 25 3a 18 20 00    	jmpq   *0x20183a(%rip)        # 201f90 <rand@plt+0x2017f8>
 756:	66 90                	xchg   %ax,%ax

0000000000000758 <strlen@plt>:
 758:	ff 25 3a 18 20 00    	jmpq   *0x20183a(%rip)        # 201f98 <rand@plt+0x201800>
 75e:	66 90                	xchg   %ax,%ax

0000000000000760 <mmap@plt>:
 760:	ff 25 3a 18 20 00    	jmpq   *0x20183a(%rip)        # 201fa0 <rand@plt+0x201808>
 766:	66 90                	xchg   %ax,%ax

0000000000000768 <srand@plt>:
 768:	ff 25 42 18 20 00    	jmpq   *0x201842(%rip)        # 201fb0 <rand@plt+0x201818>
 76e:	66 90                	xchg   %ax,%ax

0000000000000770 <memcpy@plt>:
 770:	ff 25 4a 18 20 00    	jmpq   *0x20184a(%rip)        # 201fc0 <rand@plt+0x201828>
 776:	66 90                	xchg   %ax,%ax

0000000000000778 <time@plt>:
 778:	ff 25 4a 18 20 00    	jmpq   *0x20184a(%rip)        # 201fc8 <rand@plt+0x201830>
 77e:	66 90                	xchg   %ax,%ax

0000000000000780 <malloc@plt>:
 780:	ff 25 4a 18 20 00    	jmpq   *0x20184a(%rip)        # 201fd0 <rand@plt+0x201838>
 786:	66 90                	xchg   %ax,%ax

0000000000000788 <exit@plt>:
 788:	ff 25 52 18 20 00    	jmpq   *0x201852(%rip)        # 201fe0 <rand@plt+0x201848>
 78e:	66 90                	xchg   %ax,%ax

0000000000000790 <__cxa_finalize@plt>:
 790:	ff 25 5a 18 20 00    	jmpq   *0x20185a(%rip)        # 201ff0 <rand@plt+0x201858>
 796:	66 90                	xchg   %ax,%ax

0000000000000798 <rand@plt>:
 798:	ff 25 5a 18 20 00    	jmpq   *0x20185a(%rip)        # 201ff8 <rand@plt+0x201860>
 79e:	66 90                	xchg   %ax,%ax

Disassembly of section .text:

00000000000007a0 <.text>:
 7a0:	31 ed                	xor    %ebp,%ebp
 7a2:	49 89 d1             	mov    %rdx,%r9
 7a5:	5e                   	pop    %rsi
 7a6:	48 89 e2             	mov    %rsp,%rdx
 7a9:	48 83 e4 f0          	and    $0xfffffffffffffff0,%rsp
 7ad:	50                   	push   %rax
 7ae:	54                   	push   %rsp
 7af:	4c 8d 05 aa 04 00 00 	lea    0x4aa(%rip),%r8        # c60 <rand@plt+0x4c8>
 7b6:	48 8d 0d 33 04 00 00 	lea    0x433(%rip),%rcx        # bf0 <rand@plt+0x458>
 7bd:	48 8d 3d b2 02 00 00 	lea    0x2b2(%rip),%rdi        # a76 <rand@plt+0x2de>
 7c4:	ff 15 de 17 20 00    	callq  *0x2017de(%rip)        # 201fa8 <rand@plt+0x201810>
 7ca:	f4                   	hlt    
 7cb:	0f 1f 44 00 00       	nopl   0x0(%rax,%rax,1)
 7d0:	48 8d 3d 41 18 20 00 	lea    0x201841(%rip),%rdi        # 202018 <rand@plt+0x201880>
 7d7:	48 8d 05 41 18 20 00 	lea    0x201841(%rip),%rax        # 20201f <rand@plt+0x201887>
 7de:	55                   	push   %rbp
 7df:	48 29 f8             	sub    %rdi,%rax
 7e2:	48 89 e5             	mov    %rsp,%rbp
 7e5:	48 83 f8 0e          	cmp    $0xe,%rax
 7e9:	76 15                	jbe    800 <rand@plt+0x68>
 7eb:	48 8b 05 96 17 20 00 	mov    0x201796(%rip),%rax        # 201f88 <rand@plt+0x2017f0>
 7f2:	48 85 c0             	test   %rax,%rax
 7f5:	74 09                	je     800 <rand@plt+0x68>
 7f7:	5d                   	pop    %rbp
 7f8:	ff e0                	jmpq   *%rax
 7fa:	66 0f 1f 44 00 00    	nopw   0x0(%rax,%rax,1)
 800:	5d                   	pop    %rbp
 801:	c3                   	retq   
 802:	0f 1f 40 00          	nopl   0x0(%rax)
 806:	66 2e 0f 1f 84 00 00 	nopw   %cs:0x0(%rax,%rax,1)
 80d:	00 00 00 
 810:	48 8d 3d 01 18 20 00 	lea    0x201801(%rip),%rdi        # 202018 <rand@plt+0x201880>
 817:	48 8d 35 fa 17 20 00 	lea    0x2017fa(%rip),%rsi        # 202018 <rand@plt+0x201880>
 81e:	55                   	push   %rbp
 81f:	48 29 fe             	sub    %rdi,%rsi
 822:	48 89 e5             	mov    %rsp,%rbp
 825:	48 c1 fe 03          	sar    $0x3,%rsi
 829:	48 89 f0             	mov    %rsi,%rax
 82c:	48 c1 e8 3f          	shr    $0x3f,%rax
 830:	48 01 c6             	add    %rax,%rsi
 833:	48 d1 fe             	sar    %rsi
 836:	74 18                	je     850 <rand@plt+0xb8>
 838:	48 8b 05 a9 17 20 00 	mov    0x2017a9(%rip),%rax        # 201fe8 <rand@plt+0x201850>
 83f:	48 85 c0             	test   %rax,%rax
 842:	74 0c                	je     850 <rand@plt+0xb8>
 844:	5d                   	pop    %rbp
 845:	ff e0                	jmpq   *%rax
 847:	66 0f 1f 84 00 00 00 	nopw   0x0(%rax,%rax,1)
 84e:	00 00 
 850:	5d                   	pop    %rbp
 851:	c3                   	retq   
 852:	0f 1f 40 00          	nopl   0x0(%rax)
 856:	66 2e 0f 1f 84 00 00 	nopw   %cs:0x0(%rax,%rax,1)
 85d:	00 00 00 
 860:	80 3d b1 17 20 00 00 	cmpb   $0x0,0x2017b1(%rip)        # 202018 <rand@plt+0x201880>
 867:	75 27                	jne    890 <rand@plt+0xf8>
 869:	48 83 3d 7f 17 20 00 	cmpq   $0x0,0x20177f(%rip)        # 201ff0 <rand@plt+0x201858>
 870:	00 
 871:	55                   	push   %rbp
 872:	48 89 e5             	mov    %rsp,%rbp
 875:	74 0c                	je     883 <rand@plt+0xeb>
 877:	48 8b 3d 8a 17 20 00 	mov    0x20178a(%rip),%rdi        # 202008 <rand@plt+0x201870>
 87e:	e8 0d ff ff ff       	callq  790 <__cxa_finalize@plt>
 883:	e8 48 ff ff ff       	callq  7d0 <rand@plt+0x38>
 888:	5d                   	pop    %rbp
 889:	c6 05 88 17 20 00 01 	movb   $0x1,0x201788(%rip)        # 202018 <rand@plt+0x201880>
 890:	f3 c3                	repz retq 
 892:	0f 1f 40 00          	nopl   0x0(%rax)
 896:	66 2e 0f 1f 84 00 00 	nopw   %cs:0x0(%rax,%rax,1)
 89d:	00 00 00 
 8a0:	48 8d 3d 01 15 20 00 	lea    0x201501(%rip),%rdi        # 201da8 <rand@plt+0x201610>
 8a7:	48 83 3f 00          	cmpq   $0x0,(%rdi)
 8ab:	75 0b                	jne    8b8 <rand@plt+0x120>
 8ad:	e9 5e ff ff ff       	jmpq   810 <rand@plt+0x78>
 8b2:	66 0f 1f 44 00 00    	nopw   0x0(%rax,%rax,1)
 8b8:	48 8b 05 19 17 20 00 	mov    0x201719(%rip),%rax        # 201fd8 <rand@plt+0x201840>
 8bf:	48 85 c0             	test   %rax,%rax
 8c2:	74 e9                	je     8ad <rand@plt+0x115>
 8c4:	55                   	push   %rbp
 8c5:	48 89 e5             	mov    %rsp,%rbp
 8c8:	ff d0                	callq  *%rax
 8ca:	5d                   	pop    %rbp
 8cb:	e9 40 ff ff ff       	jmpq   810 <rand@plt+0x78>
 8d0:	55                   	push   %rbp
 8d1:	48 89 e5             	mov    %rsp,%rbp
 8d4:	48 83 ec 20          	sub    $0x20,%rsp
 8d8:	48 89 7d e8          	mov    %rdi,-0x18(%rbp)
 8dc:	bf c0 00 00 00       	mov    $0xc0,%edi
 8e1:	e8 9a fe ff ff       	callq  780 <malloc@plt>
 8e6:	48 89 05 33 17 20 00 	mov    %rax,0x201733(%rip)        # 202020 <rand@plt+0x201888>
 8ed:	c7 45 f4 00 00 00 00 	movl   $0x0,-0xc(%rbp)
 8f4:	eb 74                	jmp    96a <rand@plt+0x1d2>
 8f6:	bf 10 00 00 00       	mov    $0x10,%edi
 8fb:	e8 80 fe ff ff       	callq  780 <malloc@plt>
 900:	48 89 45 f8          	mov    %rax,-0x8(%rbp)
 904:	8b 55 f4             	mov    -0xc(%rbp),%edx
 907:	89 d0                	mov    %edx,%eax
 909:	c1 e0 04             	shl    $0x4,%eax
 90c:	01 d0                	add    %edx,%eax
 90e:	48 63 d0             	movslq %eax,%rdx
 911:	48 8b 45 e8          	mov    -0x18(%rbp),%rax
 915:	48 01 d0             	add    %rdx,%rax
 918:	48 89 c2             	mov    %rax,%rdx
 91b:	48 8b 45 f8          	mov    -0x8(%rbp),%rax
 91f:	48 89 10             	mov    %rdx,(%rax)
 922:	8b 45 f4             	mov    -0xc(%rbp),%eax
 925:	69 c0 11 01 00 00    	imul   $0x111,%eax,%eax
 92b:	99                   	cltd   
 92c:	c1 ea 18             	shr    $0x18,%edx
 92f:	01 d0                	add    %edx,%eax
 931:	0f b6 c0             	movzbl %al,%eax
 934:	29 d0                	sub    %edx,%eax
 936:	89 c2                	mov    %eax,%edx
 938:	48 8b 45 f8          	mov    -0x8(%rbp),%rax
 93c:	88 50 08             	mov    %dl,0x8(%rax)
 93f:	8b 45 f4             	mov    -0xc(%rbp),%eax
 942:	89 c2                	mov    %eax,%edx
 944:	48 8b 45 f8          	mov    -0x8(%rbp),%rax
 948:	88 50 09             	mov    %dl,0x9(%rax)
 94b:	48 8b 05 ce 16 20 00 	mov    0x2016ce(%rip),%rax        # 202020 <rand@plt+0x201888>
 952:	8b 55 f4             	mov    -0xc(%rbp),%edx
 955:	48 63 d2             	movslq %edx,%rdx
 958:	48 c1 e2 03          	shl    $0x3,%rdx
 95c:	48 01 c2             	add    %rax,%rdx
 95f:	48 8b 45 f8          	mov    -0x8(%rbp),%rax
 963:	48 89 02             	mov    %rax,(%rdx)
 966:	83 45 f4 01          	addl   $0x1,-0xc(%rbp)
 96a:	83 7d f4 16          	cmpl   $0x16,-0xc(%rbp)
 96e:	7e 86                	jle    8f6 <rand@plt+0x15e>
 970:	48 8b 05 a9 16 20 00 	mov    0x2016a9(%rip),%rax        # 202020 <rand@plt+0x201888>
 977:	48 05 b8 00 00 00    	add    $0xb8,%rax
 97d:	48 c7 00 00 00 00 00 	movq   $0x0,(%rax)
 984:	90                   	nop
 985:	c9                   	leaveq 
 986:	c3                   	retq   
 987:	55                   	push   %rbp
 988:	48 89 e5             	mov    %rsp,%rbp
 98b:	48 83 ec 20          	sub    $0x20,%rsp
 98f:	bf 00 00 00 00       	mov    $0x0,%edi
 994:	e8 df fd ff ff       	callq  778 <time@plt>
 999:	89 c7                	mov    %eax,%edi
 99b:	e8 c8 fd ff ff       	callq  768 <srand@plt>
 9a0:	c7 45 ec 00 00 00 00 	movl   $0x0,-0x14(%rbp)
 9a7:	e9 ba 00 00 00       	jmpq   a66 <rand@plt+0x2ce>
 9ac:	e8 e7 fd ff ff       	callq  798 <rand@plt>
 9b1:	89 c1                	mov    %eax,%ecx
 9b3:	ba e9 a2 8b 2e       	mov    $0x2e8ba2e9,%edx
 9b8:	89 c8                	mov    %ecx,%eax
 9ba:	f7 ea                	imul   %edx
 9bc:	c1 fa 02             	sar    $0x2,%edx
 9bf:	89 c8                	mov    %ecx,%eax
 9c1:	c1 f8 1f             	sar    $0x1f,%eax
 9c4:	29 c2                	sub    %eax,%edx
 9c6:	89 d0                	mov    %edx,%eax
 9c8:	6b c0 16             	imul   $0x16,%eax,%eax
 9cb:	29 c1                	sub    %eax,%ecx
 9cd:	89 c8                	mov    %ecx,%eax
 9cf:	83 c0 01             	add    $0x1,%eax
 9d2:	89 45 f0             	mov    %eax,-0x10(%rbp)
 9d5:	e8 be fd ff ff       	callq  798 <rand@plt>
 9da:	89 c1                	mov    %eax,%ecx
 9dc:	ba e9 a2 8b 2e       	mov    $0x2e8ba2e9,%edx
 9e1:	89 c8                	mov    %ecx,%eax
 9e3:	f7 ea                	imul   %edx
 9e5:	c1 fa 02             	sar    $0x2,%edx
 9e8:	89 c8                	mov    %ecx,%eax
 9ea:	c1 f8 1f             	sar    $0x1f,%eax
 9ed:	29 c2                	sub    %eax,%edx
 9ef:	89 d0                	mov    %edx,%eax
 9f1:	6b c0 16             	imul   $0x16,%eax,%eax
 9f4:	29 c1                	sub    %eax,%ecx
 9f6:	89 c8                	mov    %ecx,%eax
 9f8:	83 c0 01             	add    $0x1,%eax
 9fb:	89 45 f4             	mov    %eax,-0xc(%rbp)
 9fe:	48 8b 05 1b 16 20 00 	mov    0x20161b(%rip),%rax        # 202020 <rand@plt+0x201888>
 a05:	8b 55 f0             	mov    -0x10(%rbp),%edx
 a08:	48 63 d2             	movslq %edx,%rdx
 a0b:	48 c1 e2 03          	shl    $0x3,%rdx
 a0f:	48 01 d0             	add    %rdx,%rax
 a12:	48 8b 00             	mov    (%rax),%rax
 a15:	48 89 45 f8          	mov    %rax,-0x8(%rbp)
 a19:	48 8b 05 00 16 20 00 	mov    0x201600(%rip),%rax        # 202020 <rand@plt+0x201888>
 a20:	8b 55 f0             	mov    -0x10(%rbp),%edx
 a23:	48 63 d2             	movslq %edx,%rdx
 a26:	48 c1 e2 03          	shl    $0x3,%rdx
 a2a:	48 01 c2             	add    %rax,%rdx
 a2d:	48 8b 05 ec 15 20 00 	mov    0x2015ec(%rip),%rax        # 202020 <rand@plt+0x201888>
 a34:	8b 4d f4             	mov    -0xc(%rbp),%ecx
 a37:	48 63 c9             	movslq %ecx,%rcx
 a3a:	48 c1 e1 03          	shl    $0x3,%rcx
 a3e:	48 01 c8             	add    %rcx,%rax
 a41:	48 8b 00             	mov    (%rax),%rax
 a44:	48 89 02             	mov    %rax,(%rdx)
 a47:	48 8b 05 d2 15 20 00 	mov    0x2015d2(%rip),%rax        # 202020 <rand@plt+0x201888>
 a4e:	8b 55 f4             	mov    -0xc(%rbp),%edx
 a51:	48 63 d2             	movslq %edx,%rdx
 a54:	48 c1 e2 03          	shl    $0x3,%rdx
 a58:	48 01 c2             	add    %rax,%rdx
 a5b:	48 8b 45 f8          	mov    -0x8(%rbp),%rax
 a5f:	48 89 02             	mov    %rax,(%rdx)
 a62:	83 45 ec 01          	addl   $0x1,-0x14(%rbp)
 a66:	81 7d ec ff 00 00 00 	cmpl   $0xff,-0x14(%rbp)
 a6d:	0f 8e 39 ff ff ff    	jle    9ac <rand@plt+0x214>
 a73:	90                   	nop
 a74:	c9                   	leaveq 
 a75:	c3                   	retq   
 a76:	55                   	push   %rbp
 a77:	48 89 e5             	mov    %rsp,%rbp
 a7a:	48 83 ec 30          	sub    $0x30,%rsp
 a7e:	89 7d dc             	mov    %edi,-0x24(%rbp)
 a81:	48 89 75 d0          	mov    %rsi,-0x30(%rbp)
 a85:	41 b9 00 00 00 00    	mov    $0x0,%r9d
 a8b:	41 b8 ff ff ff ff    	mov    $0xffffffff,%r8d
 a91:	b9 22 00 00 00       	mov    $0x22,%ecx
 a96:	ba 07 00 00 00       	mov    $0x7,%edx
 a9b:	be 00 10 00 00       	mov    $0x1000,%esi
 aa0:	bf 00 00 00 00       	mov    $0x0,%edi
 aa5:	e8 b6 fc ff ff       	callq  760 <mmap@plt>
 aaa:	48 89 45 e8          	mov    %rax,-0x18(%rbp)
 aae:	48 8b 45 e8          	mov    -0x18(%rbp),%rax
 ab2:	48 89 c7             	mov    %rax,%rdi
 ab5:	e8 16 fe ff ff       	callq  8d0 <rand@plt+0x138>
 aba:	48 8b 0d 4f 15 20 00 	mov    0x20154f(%rip),%rcx        # 202010 <rand@plt+0x201878>
 ac1:	48 8b 45 e8          	mov    -0x18(%rbp),%rax
 ac5:	ba f5 02 00 00       	mov    $0x2f5,%edx
 aca:	48 89 ce             	mov    %rcx,%rsi
 acd:	48 89 c7             	mov    %rax,%rdi
 ad0:	e8 9b fc ff ff       	callq  770 <memcpy@plt>
 ad5:	83 7d dc 02          	cmpl   $0x2,-0x24(%rbp)
 ad9:	74 0a                	je     ae5 <rand@plt+0x34d>
 adb:	bf 01 00 00 00       	mov    $0x1,%edi
 ae0:	e8 a3 fc ff ff       	callq  788 <exit@plt>
 ae5:	48 8b 45 d0          	mov    -0x30(%rbp),%rax
 ae9:	48 83 c0 08          	add    $0x8,%rax
 aed:	48 8b 00             	mov    (%rax),%rax
 af0:	48 89 c7             	mov    %rax,%rdi
 af3:	e8 60 fc ff ff       	callq  758 <strlen@plt>
 af8:	48 83 f8 17          	cmp    $0x17,%rax
 afc:	74 0a                	je     b08 <rand@plt+0x370>
 afe:	bf 01 00 00 00       	mov    $0x1,%edi
 b03:	e8 80 fc ff ff       	callq  788 <exit@plt>
 b08:	b8 00 00 00 00       	mov    $0x0,%eax
 b0d:	e8 75 fe ff ff       	callq  987 <rand@plt+0x1ef>
 b12:	c7 45 e4 00 00 00 00 	movl   $0x0,-0x1c(%rbp)
 b19:	e9 ae 00 00 00       	jmpq   bcc <rand@plt+0x434>
 b1e:	48 8b 05 fb 14 20 00 	mov    0x2014fb(%rip),%rax        # 202020 <rand@plt+0x201888>
 b25:	8b 55 e4             	mov    -0x1c(%rbp),%edx
 b28:	48 63 d2             	movslq %edx,%rdx
 b2b:	48 c1 e2 03          	shl    $0x3,%rdx
 b2f:	48 01 d0             	add    %rdx,%rax
 b32:	48 8b 00             	mov    (%rax),%rax
 b35:	48 89 45 f0          	mov    %rax,-0x10(%rbp)
 b39:	48 8b 05 e0 14 20 00 	mov    0x2014e0(%rip),%rax        # 202020 <rand@plt+0x201888>
 b40:	8b 55 e4             	mov    -0x1c(%rbp),%edx
 b43:	48 63 d2             	movslq %edx,%rdx
 b46:	48 83 c2 01          	add    $0x1,%rdx
 b4a:	48 c1 e2 03          	shl    $0x3,%rdx
 b4e:	48 01 d0             	add    %rdx,%rax
 b51:	48 8b 00             	mov    (%rax),%rax
 b54:	48 89 45 f8          	mov    %rax,-0x8(%rbp)
 b58:	48 83 7d f8 00       	cmpq   $0x0,-0x8(%rbp)
 b5d:	74 3a                	je     b99 <rand@plt+0x401>
 b5f:	48 8b 45 f0          	mov    -0x10(%rbp),%rax
 b63:	48 8b 00             	mov    (%rax),%rax
 b66:	48 8b 55 f8          	mov    -0x8(%rbp),%rdx
 b6a:	0f b6 52 08          	movzbl 0x8(%rdx),%edx
 b6e:	0f be d2             	movsbl %dl,%edx
 b71:	48 8b 4d f8          	mov    -0x8(%rbp),%rcx
 b75:	48 8b 09             	mov    (%rcx),%rcx
 b78:	48 8b 75 d0          	mov    -0x30(%rbp),%rsi
 b7c:	48 83 c6 08          	add    $0x8,%rsi
 b80:	48 8b 3e             	mov    (%rsi),%rdi
 b83:	48 8b 75 f0          	mov    -0x10(%rbp),%rsi
 b87:	0f b6 76 09          	movzbl 0x9(%rsi),%esi
 b8b:	40 0f b6 f6          	movzbl %sil,%esi
 b8f:	48 01 f7             	add    %rsi,%rdi
 b92:	48 89 ce             	mov    %rcx,%rsi
 b95:	ff d0                	callq  *%rax
 b97:	eb 2f                	jmp    bc8 <rand@plt+0x430>
 b99:	48 8b 45 f0          	mov    -0x10(%rbp),%rax
 b9d:	48 8b 00             	mov    (%rax),%rax
 ba0:	48 8b 55 d0          	mov    -0x30(%rbp),%rdx
 ba4:	48 83 c2 08          	add    $0x8,%rdx
 ba8:	48 8b 0a             	mov    (%rdx),%rcx
 bab:	48 8b 55 f0          	mov    -0x10(%rbp),%rdx
 baf:	0f b6 52 09          	movzbl 0x9(%rdx),%edx
 bb3:	0f b6 d2             	movzbl %dl,%edx
 bb6:	48 8d 3c 11          	lea    (%rcx,%rdx,1),%rdi
 bba:	48 8b 4d e8          	mov    -0x18(%rbp),%rcx
 bbe:	ba 00 00 00 00       	mov    $0x0,%edx
 bc3:	48 89 ce             	mov    %rcx,%rsi
 bc6:	ff d0                	callq  *%rax
 bc8:	83 45 e4 01          	addl   $0x1,-0x1c(%rbp)
 bcc:	83 7d e4 16          	cmpl   $0x16,-0x1c(%rbp)
 bd0:	0f 8e 48 ff ff ff    	jle    b1e <rand@plt+0x386>
 bd6:	48 8d 3d 93 03 00 00 	lea    0x393(%rip),%rdi        # f70 <rand@plt+0x7d8>
 bdd:	e8 6e fb ff ff       	callq  750 <puts@plt>
 be2:	b8 00 00 00 00       	mov    $0x0,%eax
 be7:	c9                   	leaveq 
 be8:	c3                   	retq   
 be9:	0f 1f 80 00 00 00 00 	nopl   0x0(%rax)
 bf0:	41 57                	push   %r15
 bf2:	41 56                	push   %r14
 bf4:	41 89 ff             	mov    %edi,%r15d
 bf7:	41 55                	push   %r13
 bf9:	41 54                	push   %r12
 bfb:	4c 8d 25 96 11 20 00 	lea    0x201196(%rip),%r12        # 201d98 <rand@plt+0x201600>
 c02:	55                   	push   %rbp
 c03:	48 8d 2d 96 11 20 00 	lea    0x201196(%rip),%rbp        # 201da0 <rand@plt+0x201608>
 c0a:	53                   	push   %rbx
 c0b:	49 89 f6             	mov    %rsi,%r14
 c0e:	49 89 d5             	mov    %rdx,%r13
 c11:	4c 29 e5             	sub    %r12,%rbp
 c14:	48 83 ec 08          	sub    $0x8,%rsp
 c18:	48 c1 fd 03          	sar    $0x3,%rbp
 c1c:	e8 ff fa ff ff       	callq  720 <puts@plt-0x30>
 c21:	48 85 ed             	test   %rbp,%rbp
 c24:	74 20                	je     c46 <rand@plt+0x4ae>
 c26:	31 db                	xor    %ebx,%ebx
 c28:	0f 1f 84 00 00 00 00 	nopl   0x0(%rax,%rax,1)
 c2f:	00 
 c30:	4c 89 ea             	mov    %r13,%rdx
 c33:	4c 89 f6             	mov    %r14,%rsi
 c36:	44 89 ff             	mov    %r15d,%edi
 c39:	41 ff 14 dc          	callq  *(%r12,%rbx,8)
 c3d:	48 83 c3 01          	add    $0x1,%rbx
 c41:	48 39 dd             	cmp    %rbx,%rbp
 c44:	75 ea                	jne    c30 <rand@plt+0x498>
 c46:	48 83 c4 08          	add    $0x8,%rsp
 c4a:	5b                   	pop    %rbx
 c4b:	5d                   	pop    %rbp
 c4c:	41 5c                	pop    %r12
 c4e:	41 5d                	pop    %r13
 c50:	41 5e                	pop    %r14
 c52:	41 5f                	pop    %r15
 c54:	c3                   	retq   
 c55:	90                   	nop
 c56:	66 2e 0f 1f 84 00 00 	nopw   %cs:0x0(%rax,%rax,1)
 c5d:	00 00 00 
 c60:	f3 c3                	repz retq 

Disassembly of section .fini:

0000000000000c64 <.fini>:
 c64:	48 83 ec 08          	sub    $0x8,%rsp
 c68:	48 83 c4 08          	add    $0x8,%rsp
 c6c:	c3                   	retq   
